; Function Attrs: uwtable
define hidden noundef zeroext i1 @_ZTvn16_n32_NK5osgeo4proj9operation26InverseCoordinateOperation15_isEquivalentToEPKNS0_4util11IComparableENS4_9CriterionERKSt10shared_ptrINS0_2io15DatabaseContextEE(ptr noundef %0, ptr noundef %1, i32 noundef %2, ptr noundef nonnull align 8 dereferenceable(16) %3) unnamed_addr #26 align 2 {
  %5 = getelementptr inbounds i8, ptr %0, i64 -16
  %6 = load ptr, ptr %5, align 8, !tbaa !3
  %7 = getelementptr inbounds i8, ptr %6, i64 -32
  %8 = load i64, ptr %7, align 8
  %9 = getelementptr inbounds i8, ptr %5, i64 %8
  %10 = tail call noundef zeroext i1 @_ZNK5osgeo4proj9operation26InverseCoordinateOperation15_isEquivalentToEPKNS0_4util11IComparableENS4_9CriterionERKSt10shared_ptrINS0_2io15DatabaseContextEE(ptr noundef nonnull align 8 dereferenceable(25) %9, ptr noundef %1, i32 noundef %2, ptr noundef nonnull align 8 dereferenceable(16) %3)
  ret i1 %10
}